target datalayout = "e-m:e-p270:32:32-p271:32:32-p272:64:64-i64:64-i128:128-f80:128-n8:16:32:64-S128"
target triple = "x86_64-unknown-linux-gnu"

%"class.smt::model_generator" = type { ptr, ptr, %class.ptr_vector.0, i32, [4 x i8], %class.obj_map, %class.ref_vector, %class.ref, %class.obj_hashtable }
%class.ptr_vector.0 = type { %class.vector.1 }
%class.vector.1 = type { ptr }
%class.obj_map = type { %class.core_hashtable }
%class.core_hashtable = type <{ ptr, i32, i32, i32, [4 x i8] }>
%class.ref_vector = type { %class.ref_vector_core }
%class.ref_vector_core = type { %class.ref_manager_wrapper, %class.ptr_vector.2 }
%class.ref_manager_wrapper = type { ptr }
%class.ptr_vector.2 = type { %class.vector.3 }
%class.vector.3 = type { ptr }
%class.ref = type { ptr }
%class.obj_hashtable = type { %class.core_hashtable.base.5, [4 x i8] }
%class.core_hashtable.base.5 = type <{ ptr, i32, i32, i32 }>

; Function Attrs: mustprogress nounwind uwtable
define linkonce_odr hidden noundef ptr @_ZNK3refI11proto_modelEptEv(ptr noundef nonnull align 8 dereferenceable(8) %this) #4 comdat align 2 {
entry:
  %this.addr = alloca ptr, align 8
  store ptr %this, ptr %this.addr, align 8
  %this1 = load ptr, ptr %this.addr, align 8
  %m_ptr = getelementptr inbounds %class.ref, ptr %this1, i32 0, i32 0
  %0 = load ptr, ptr %m_ptr, align 8
  ret ptr %0
}

; Function Attrs: mustprogress uwtable
define hidden noundef ptr @_ZN3smt15model_generator14get_some_valueEP4sort(ptr noundef nonnull align 8 dereferenceable(104) %this, ptr noundef %s) #5 align 2 {
entry:
  %this.addr = alloca ptr, align 8
  %s.addr = alloca ptr, align 8
  store ptr %this, ptr %this.addr, align 8
  store ptr %s, ptr %s.addr, align 8
  %this1 = load ptr, ptr %this.addr, align 8
  %m_model = getelementptr inbounds %"class.smt::model_generator", ptr %this1, i32 0, i32 7
  %call = call noundef ptr @_ZNK3refI11proto_modelEptEv(ptr noundef nonnull align 8 dereferenceable(8) %m_model)
  %0 = load ptr, ptr %s.addr, align 8
  %vtable = load ptr, ptr %call, align 8
  %vfn = getelementptr inbounds ptr, ptr %vtable, i64 5
  %1 = load ptr, ptr %vfn, align 8
  %call2 = call noundef ptr %1(ptr noundef nonnull align 8 dereferenceable(177) %call, ptr noundef %0)
  ret ptr %call2
}