; Function Attrs: mustprogress uwtable
define hidden noundef ptr @_ZN3smt15model_generator14get_some_valueEP4sort(ptr nocapture noundef nonnull readonly align 8 dereferenceable(104) %this, ptr noundef %s) local_unnamed_addr #3 align 2 {
entry:
  %m_model = getelementptr inbounds i8, ptr %this, i64 72
  %0 = load ptr, ptr %m_model, align 8
  %vtable = load ptr, ptr %0, align 8
  %vfn = getelementptr inbounds i8, ptr %vtable, i64 40
  %1 = load ptr, ptr %vfn, align 8
  %call2 = tail call noundef ptr %1(ptr noundef nonnull align 8 dereferenceable(177) %0, ptr noundef %s)
  ret ptr %call2
}